target datalayout = "e-m:e-p270:32:32-p271:32:32-p272:64:64-i64:64-i128:128-f80:128-n8:16:32:64-S128"
target triple = "x86_64-pc-linux-gnu"

@.str.77 = private unnamed_addr constant [40 x i8] c"cli_scanxar: XML element value invalid\0A\00", align 1
@.str.78 = private unnamed_addr constant [36 x i8] c"cli_scanxar: XML element value %li\0A\00", align 1
@.str.79 = private unnamed_addr constant [38 x i8] c"cli_scanxar: No text for XML element\0A\00", align 1

; Function Attrs: nounwind uwtable
define internal i32 @xar_get_numeric_from_xml_element(ptr noundef %0, ptr noundef %1) #0 {
  %3 = alloca i32, align 4
  %4 = alloca ptr, align 8
  %5 = alloca ptr, align 8
  %6 = alloca ptr, align 8
  %7 = alloca i64, align 8
  %8 = alloca ptr, align 8
  %9 = alloca i32, align 4
  store ptr %0, ptr %4, align 8, !tbaa !28
  store ptr %1, ptr %5, align 8, !tbaa !83
  call void @llvm.lifetime.start.p0(i64 8, ptr %6) #9
  %10 = load ptr, ptr %4, align 8, !tbaa !28
  %11 = call i32 @xmlTextReaderRead(ptr noundef %10)
  %12 = icmp eq i32 %11, 1
  br i1 %12, label %13, label %51

13:                                               ; preds = %2
  %14 = load ptr, ptr %4, align 8, !tbaa !28
  %15 = call i32 @xmlTextReaderNodeType(ptr noundef %14)
  %16 = icmp eq i32 %15, 3
  br i1 %16, label %17, label %51

17:                                               ; preds = %13
  %18 = load ptr, ptr %4, align 8, !tbaa !28
  %19 = call ptr @xmlTextReaderConstValue(ptr noundef %18)
  store ptr %19, ptr %6, align 8, !tbaa !27
  %20 = load ptr, ptr %6, align 8, !tbaa !27
  %21 = icmp ne ptr %20, null
  br i1 %21, label %22, label %50

22:                                               ; preds = %17
  call void @llvm.lifetime.start.p0(i64 8, ptr %7) #9
  call void @llvm.lifetime.start.p0(i64 8, ptr %8) #9
  store ptr null, ptr %8, align 8, !tbaa !27
  %23 = call ptr @__errno_location() #10
  store i32 0, ptr %23, align 4, !tbaa !8
  %24 = load ptr, ptr %6, align 8, !tbaa !27
  %25 = call i64 @strtol(ptr noundef %24, ptr noundef %8, i32 noundef 10) #9
  store i64 %25, ptr %7, align 8, !tbaa !68
  %26 = load i64, ptr %7, align 8, !tbaa !68
  %27 = icmp eq i64 %26, 9223372036854775807
  br i1 %27, label %31, label %28

28:                                               ; preds = %22
  %29 = load i64, ptr %7, align 8, !tbaa !68
  %30 = icmp eq i64 %29, -9223372036854775808
  br i1 %30, label %31, label %35

31:                                               ; preds = %28, %22
  %32 = call ptr @__errno_location() #10
  %33 = load i32, ptr %32, align 4, !tbaa !8
  %34 = icmp ne i32 %33, 0
  br i1 %34, label %39, label %35

35:                                               ; preds = %31, %28
  %36 = load ptr, ptr %8, align 8, !tbaa !27
  %37 = load ptr, ptr %6, align 8, !tbaa !27
  %38 = icmp eq ptr %36, %37
  br i1 %38, label %39, label %40

39:                                               ; preds = %35, %31
  call void (ptr, ...) @cli_dbgmsg(ptr noundef @.str.77)
  store i32 26, ptr %3, align 4
  store i32 1, ptr %9, align 4
  br label %49

40:                                               ; preds = %35
  %41 = load i64, ptr %7, align 8, !tbaa !68
  %42 = icmp slt i64 %41, 0
  br i1 %42, label %43, label %45

43:                                               ; preds = %40
  %44 = load i64, ptr %7, align 8, !tbaa !68
  call void (ptr, ...) @cli_dbgmsg(ptr noundef @.str.78, i64 noundef %44)
  store i32 26, ptr %3, align 4
  store i32 1, ptr %9, align 4
  br label %49

45:                                               ; preds = %40
  br label %46

46:                                               ; preds = %45
  %47 = load i64, ptr %7, align 8, !tbaa !68
  %48 = load ptr, ptr %5, align 8, !tbaa !83
  store i64 %47, ptr %48, align 8, !tbaa !68
  store i32 0, ptr %3, align 4
  store i32 1, ptr %9, align 4
  br label %49

49:                                               ; preds = %46, %43, %39
  call void @llvm.lifetime.end.p0(i64 8, ptr %8) #9
  call void @llvm.lifetime.end.p0(i64 8, ptr %7) #9
  br label %52

50:                                               ; preds = %17
  br label %51

51:                                               ; preds = %50, %13, %2
  call void (ptr, ...) @cli_dbgmsg(ptr noundef @.str.79)
  store i32 26, ptr %3, align 4
  store i32 1, ptr %9, align 4
  br label %52

52:                                               ; preds = %51, %49
  call void @llvm.lifetime.end.p0(i64 8, ptr %6) #9
  %53 = load i32, ptr %3, align 4
  ret i32 %53
}