; Function Attrs: nounwind uwtable
define internal fastcc range(i32 0, 27) i32 @xar_get_numeric_from_xml_element(ptr noundef nonnull %0, ptr noundef nonnull writeonly captures(none) %1) unnamed_addr #0 {
  %3 = alloca ptr, align 8
  %4 = tail call i32 @xmlTextReaderRead(ptr noundef nonnull %0) #10
  %5 = icmp eq i32 %4, 1
  br i1 %5, label %6, label %26

6:                                                ; preds = %2
  %7 = tail call i32 @xmlTextReaderNodeType(ptr noundef nonnull %0) #10
  %8 = icmp eq i32 %7, 3
  br i1 %8, label %9, label %26

9:                                                ; preds = %6
  %10 = tail call ptr @xmlTextReaderConstValue(ptr noundef nonnull %0) #10
  %.not = icmp eq ptr %10, null
  br i1 %.not, label %26, label %11

11:                                               ; preds = %9
  call void @llvm.lifetime.start.p0(i64 8, ptr nonnull %3) #10
  store ptr null, ptr %3, align 8, !tbaa !24
  %12 = tail call ptr @__errno_location() #11
  store i32 0, ptr %12, align 4, !tbaa !3
  %13 = call i64 @strtol(ptr noundef nonnull %10, ptr noundef nonnull %3, i32 noundef 10) #10
  %14 = add i64 %13, -9223372036854775807
  %or.cond = icmp ult i64 %14, 2
  br i1 %or.cond, label %15, label %19

15:                                               ; preds = %11
  %16 = load i32, ptr %12, align 4, !tbaa !3
  %.not16 = icmp ne i32 %16, 0
  %17 = load ptr, ptr %3, align 8
  %18 = icmp eq ptr %17, %10
  %or.cond18 = select i1 %.not16, i1 true, i1 %18
  br i1 %or.cond18, label %20, label %21

19:                                               ; preds = %11
  %.old = load ptr, ptr %3, align 8, !tbaa !24
  %.old17 = icmp eq ptr %.old, %10
  br i1 %.old17, label %20, label %21

20:                                               ; preds = %19, %15
  tail call void (ptr, ...) @cli_dbgmsg(ptr noundef nonnull @.str.77) #10
  br label %25

21:                                               ; preds = %15, %19
  %22 = icmp slt i64 %13, 0
  br i1 %22, label %23, label %24

23:                                               ; preds = %21
  tail call void (ptr, ...) @cli_dbgmsg(ptr noundef nonnull @.str.78, i64 noundef %13) #10
  br label %25

24:                                               ; preds = %21
  store i64 %13, ptr %1, align 8, !tbaa !65
  br label %25

25:                                               ; preds = %24, %23, %20
  %.0 = phi i32 [ 26, %20 ], [ 26, %23 ], [ 0, %24 ]
  call void @llvm.lifetime.end.p0(i64 8, ptr nonnull %3) #10
  br label %27

26:                                               ; preds = %9, %6, %2
  tail call void (ptr, ...) @cli_dbgmsg(ptr noundef nonnull @.str.79) #10
  br label %27

27:                                               ; preds = %26, %25
  %.1 = phi i32 [ %.0, %25 ], [ 26, %26 ]
  ret i32 %.1
}